; Function Attrs: mustprogress nofree norecurse nosync nounwind willreturn memory(argmem: readwrite) uwtable
define dso_local void @archive_entry_set_size(ptr noundef captures(none) initializes((16, 20), (112, 120)) %0, i64 noundef %1) local_unnamed_addr #7 {
  %spec.store.select = tail call i64 @llvm.smax.i64(i64 %1, i64 0)
  %3 = getelementptr inbounds nuw i8, ptr %0, i64 16
  store i32 0, ptr %3, align 8, !tbaa !78
  %4 = getelementptr inbounds nuw i8, ptr %0, i64 112
  store i64 %spec.store.select, ptr %4, align 8, !tbaa !76
  %5 = getelementptr inbounds nuw i8, ptr %0, i64 192
  %6 = load i32, ptr %5, align 8, !tbaa !31
  %7 = or i32 %6, 64
  store i32 %7, ptr %5, align 8, !tbaa !31
  ret void
}